; Function Attrs: nounwind uwtable
define ptr @l_Array_foldlMUnsafe_fold___at___private_Lean_Elab_Tactic_BVDecide_Frontend_Normalize_Enums_0__Lean_Elab_Tactic_BVDecide_Frontend_Normalize_getMatchEqCondForAux_handleSimpleEnum___spec__11(ptr noundef %0, ptr readnone captures(none) %1, i64 noundef %2, i64 noundef %3, ptr noundef %4) local_unnamed_addr #1 {
  %.not33 = icmp eq i64 %2, %3
  %.pre = ptrtoint ptr %0 to i64
  %.pre39 = and i64 %.pre, 1
  %6 = icmp eq i64 %.pre39, 0
  br i1 %.not33, label %._crit_edge, label %.lr.ph

.lr.ph:                                           ; preds = %5
  br i1 %6, label %.lr.ph.split.us, label %lean_inc.exit

.lr.ph.split.us:                                  ; preds = %.lr.ph, %lean_dec.exit.us
  %.01835.us = phi i64 [ %19, %lean_dec.exit.us ], [ %2, %.lr.ph ]
  %.02034.us = phi ptr [ %18, %lean_dec.exit.us ], [ %4, %.lr.ph ]
  %7 = load ptr, ptr @l_Array_foldlMUnsafe_fold___at___private_Lean_Elab_Tactic_BVDecide_Frontend_Normalize_Enums_0__Lean_Elab_Tactic_BVDecide_Frontend_Normalize_getMatchEqCondForAux_handleSimpleEnum___spec__11___closed__2, align 8, !tbaa !11
  %.val.i.us = load i32, ptr %0, align 4, !tbaa !4
  %8 = icmp sgt i32 %.val.i.us, 0
  br i1 %8, label %11, label %9, !prof !13

9:                                                ; preds = %.lr.ph.split.us
  %.not.i22.us = icmp eq i32 %.val.i.us, 0
  br i1 %.not.i22.us, label %lean_inc.exit.us, label %10

10:                                               ; preds = %9
  tail call void @lean_inc_ref_cold(ptr noundef nonnull %0) #7
  br label %lean_inc.exit.us

11:                                               ; preds = %.lr.ph.split.us
  %12 = add nuw i32 %.val.i.us, 1
  store i32 %12, ptr %0, align 4, !tbaa !4
  br label %lean_inc.exit.us

lean_inc.exit.us:                                 ; preds = %11, %10, %9
  tail call void @lean_inc_heartbeat() #7
  %13 = tail call noalias ptr @mi_malloc_small(i64 noundef 24) #7
  %14 = icmp eq ptr %13, null
  br i1 %14, label %.split.us, label %lean_dec.exit.us

lean_dec.exit.us:                                 ; preds = %lean_inc.exit.us
  %15 = getelementptr inbounds nuw i8, ptr %13, i64 4
  store i32 1, ptr %13, align 4, !tbaa !4
  store i32 131096, ptr %15, align 4
  %16 = getelementptr inbounds nuw i8, ptr %13, i64 8
  store ptr %7, ptr %16, align 8, !tbaa !11
  %17 = getelementptr inbounds nuw i8, ptr %13, i64 16
  store ptr %0, ptr %17, align 8, !tbaa !11
  %18 = tail call ptr @lean_array_push(ptr noundef %.02034.us, ptr noundef nonnull %13) #7
  %19 = add i64 %.01835.us, 1
  %.not.us = icmp eq i64 %19, %3
  br i1 %.not.us, label %._crit_edge.thread, label %.lr.ph.split.us

lean_inc.exit:                                    ; preds = %.lr.ph, %lean_dec.exit
  %.01835 = phi i64 [ %33, %lean_dec.exit ], [ %2, %.lr.ph ]
  %.02034 = phi ptr [ %32, %lean_dec.exit ], [ %4, %.lr.ph ]
  %20 = load ptr, ptr @l_Array_foldlMUnsafe_fold___at___private_Lean_Elab_Tactic_BVDecide_Frontend_Normalize_Enums_0__Lean_Elab_Tactic_BVDecide_Frontend_Normalize_getMatchEqCondForAux_handleSimpleEnum___spec__11___closed__2, align 8, !tbaa !11
  tail call void @lean_inc_heartbeat() #7
  %21 = tail call noalias ptr @mi_malloc_small(i64 noundef 24) #7
  %22 = icmp eq ptr %21, null
  br i1 %22, label %.split.us, label %lean_dec.exit

.split.us:                                        ; preds = %lean_inc.exit, %lean_inc.exit.us
  tail call void @lean_internal_panic_out_of_memory() #6
  unreachable

._crit_edge:                                      ; preds = %5
  br i1 %6, label %._crit_edge.thread, label %._crit_edge.thread45

._crit_edge.thread:                               ; preds = %lean_dec.exit.us, %._crit_edge
  %.020.lcssa44 = phi ptr [ %4, %._crit_edge ], [ %18, %lean_dec.exit.us ]
  %23 = load i32, ptr %0, align 4, !tbaa !4
  %24 = icmp sgt i32 %23, 1
  br i1 %24, label %25, label %27, !prof !13

25:                                               ; preds = %._crit_edge.thread
  %26 = add nsw i32 %23, -1
  store i32 %26, ptr %0, align 4, !tbaa !4
  br label %._crit_edge.thread45

27:                                               ; preds = %._crit_edge.thread
  %.not.i = icmp eq i32 %23, 0
  br i1 %.not.i, label %._crit_edge.thread45, label %28

28:                                               ; preds = %27
  tail call void @lean_dec_ref_cold(ptr noundef nonnull %0) #7
  br label %._crit_edge.thread45

lean_dec.exit:                                    ; preds = %lean_inc.exit
  %29 = getelementptr inbounds nuw i8, ptr %21, i64 4
  store i32 1, ptr %21, align 4, !tbaa !4
  store i32 131096, ptr %29, align 4
  %30 = getelementptr inbounds nuw i8, ptr %21, i64 8
  store ptr %20, ptr %30, align 8, !tbaa !11
  %31 = getelementptr inbounds nuw i8, ptr %21, i64 16
  store ptr %0, ptr %31, align 8, !tbaa !11
  %32 = tail call ptr @lean_array_push(ptr noundef %.02034, ptr noundef nonnull %21) #7
  %33 = add i64 %.01835, 1
  %.not = icmp eq i64 %33, %3
  br i1 %.not, label %._crit_edge.thread45, label %lean_inc.exit

._crit_edge.thread45:                             ; preds = %lean_dec.exit, %28, %27, %25, %._crit_edge
  %.020.lcssa43 = phi ptr [ %.020.lcssa44, %28 ], [ %.020.lcssa44, %27 ], [ %.020.lcssa44, %25 ], [ %4, %._crit_edge ], [ %32, %lean_dec.exit ]
  ret ptr %.020.lcssa43
}